target datalayout = "e-m:e-p270:32:32-p271:32:32-p272:64:64-i64:64-i128:128-f80:128-n8:16:32:64-S128"
target triple = "x86_64-pc-linux-gnu"

%class.Scheduler = type { [200 x %"struct.Scheduler::handType"], [200 x %"struct.Scheduler::groupType"], i32, i32, %"struct.std::atomic", [6 x [200 x %"struct.Scheduler::listType"]], [200 x %"struct.Scheduler::sortType"], i32, %"class.std::vector", %"class.std::vector", %"class.std::vector", i32, i32, %"class.std::vector", %"class.std::vector.0", %class.Timer }
%"struct.Scheduler::handType" = type { i32, i32, [4 x [4 x i32]], i32, i32, i32, i32, i32, i32, i32, i32, i32, i32 }
%"struct.Scheduler::groupType" = type { i32, i32, i32, i32, i32, i32 }
%"struct.std::atomic" = type { %"struct.std::__atomic_base" }
%"struct.std::__atomic_base" = type { i32 }
%"struct.Scheduler::listType" = type { i32, i32, i32 }
%"struct.Scheduler::sortType" = type { i32, i32 }
%"class.std::vector" = type { %"struct.std::_Vector_base" }
%"struct.std::_Vector_base" = type { %"struct.std::_Vector_base<int, std::allocator<int>>::_Vector_impl" }
%"struct.std::_Vector_base<int, std::allocator<int>>::_Vector_impl" = type { %"struct.std::_Vector_base<int, std::allocator<int>>::_Vector_impl_data" }
%"struct.std::_Vector_base<int, std::allocator<int>>::_Vector_impl_data" = type { ptr, ptr, ptr }
%"class.std::vector.0" = type { %"struct.std::_Vector_base.1" }
%"struct.std::_Vector_base.1" = type { %"struct.std::_Vector_base<Timer, std::allocator<Timer>>::_Vector_impl" }
%"struct.std::_Vector_base<Timer, std::allocator<Timer>>::_Vector_impl" = type { %"struct.std::_Vector_base<Timer, std::allocator<Timer>>::_Vector_impl_data" }
%"struct.std::_Vector_base<Timer, std::allocator<Timer>>::_Vector_impl_data" = type { ptr, ptr, ptr }
%class.Timer = type { %"class.std::__cxx11::basic_string", i32, i64, i64, %"class.std::chrono::time_point", i64 }
%"class.std::__cxx11::basic_string" = type { %"struct.std::__cxx11::basic_string<char>::_Alloc_hider", i64, %union.anon }
%"struct.std::__cxx11::basic_string<char>::_Alloc_hider" = type { ptr }
%union.anon = type { i64, [8 x i8] }
%"class.std::chrono::time_point" = type { %"class.std::chrono::duration" }
%"class.std::chrono::duration" = type { i64 }
%struct.boards = type { i32, [200 x %struct.deal], [200 x i32], [200 x i32], [200 x i32] }
%struct.deal = type { i32, i32, [3 x i32], [3 x i32], [4 x [4 x i32]] }
%struct.playTracesBin = type { i32, [200 x %struct.playTraceBin] }
%struct.playTraceBin = type { i32, [52 x i32], [52 x i32] }

; Function Attrs: mustprogress uwtable
define void @_ZN9Scheduler11RegisterRunE7RunModeRK6boardsRK13playTracesBin(ptr noundef nonnull align 8 dereferenceable(43416) %0, i32 noundef %1, ptr noundef nonnull align 4 dereferenceable(21604) %2, ptr noundef nonnull align 4 dereferenceable(84004) %3) #4 align 2 {
  %5 = alloca ptr, align 8
  %6 = alloca i32, align 4
  %7 = alloca ptr, align 8
  %8 = alloca ptr, align 8
  %9 = alloca i32, align 4
  store ptr %0, ptr %5, align 8
  store i32 %1, ptr %6, align 4
  store ptr %2, ptr %7, align 8
  store ptr %3, ptr %8, align 8
  %10 = load ptr, ptr %5, align 8
  store i32 0, ptr %9, align 4
  br label %11

11:                                               ; preds = %30, %4
  %12 = load i32, ptr %9, align 4
  %13 = load ptr, ptr %7, align 8
  %14 = getelementptr inbounds nuw %struct.boards, ptr %13, i32 0, i32 0
  %15 = load i32, ptr %14, align 4
  %16 = icmp slt i32 %12, %15
  br i1 %16, label %17, label %33

17:                                               ; preds = %11
  %18 = load ptr, ptr %8, align 8
  %19 = getelementptr inbounds nuw %struct.playTracesBin, ptr %18, i32 0, i32 1
  %20 = load i32, ptr %9, align 4
  %21 = sext i32 %20 to i64
  %22 = getelementptr inbounds [200 x %struct.playTraceBin], ptr %19, i64 0, i64 %21
  %23 = getelementptr inbounds nuw %struct.playTraceBin, ptr %22, i32 0, i32 0
  %24 = load i32, ptr %23, align 4
  %25 = getelementptr inbounds nuw %class.Scheduler, ptr %10, i32 0, i32 0
  %26 = load i32, ptr %9, align 4
  %27 = sext i32 %26 to i64
  %28 = getelementptr inbounds [200 x %"struct.Scheduler::handType"], ptr %25, i64 0, i64 %27
  %29 = getelementptr inbounds nuw %"struct.Scheduler::handType", ptr %28, i32 0, i32 7
  store i32 %24, ptr %29, align 8
  br label %30

30:                                               ; preds = %17
  %31 = load i32, ptr %9, align 4
  %32 = add nsw i32 %31, 1
  store i32 %32, ptr %9, align 4
  br label %11, !llvm.loop !10

33:                                               ; preds = %11
  %34 = load i32, ptr %6, align 4
  %35 = load ptr, ptr %7, align 8
  call void @_ZN9Scheduler11RegisterRunE7RunModeRK6boards(ptr noundef nonnull align 8 dereferenceable(43416) %10, i32 noundef %34, ptr noundef nonnull align 4 dereferenceable(21604) %35)
  ret void
}