; Function Attrs: mustprogress nofree nounwind memory(readwrite, inaccessiblemem: write) uwtable
define void @_ZN9Scheduler11RegisterRunE7RunModeRK6boardsRK13playTracesBin(ptr noundef nonnull align 8 dereferenceable(43416) %0, i32 noundef %1, ptr nocapture noundef nonnull readonly align 4 dereferenceable(21604) %2, ptr nocapture noundef nonnull readonly align 4 dereferenceable(84004) %3) local_unnamed_addr #6 align 2 {
  %5 = load i32, ptr %2, align 4
  %6 = icmp sgt i32 %5, 0
  br i1 %6, label %.lr.ph, label %._crit_edge

.lr.ph:                                           ; preds = %4
  %7 = getelementptr inbounds nuw i8, ptr %3, i64 4
  br label %8

8:                                                ; preds = %.lr.ph, %8
  %indvars.iv = phi i64 [ 0, %.lr.ph ], [ %indvars.iv.next, %8 ]
  %9 = getelementptr inbounds [200 x %struct.playTraceBin], ptr %7, i64 0, i64 %indvars.iv
  %10 = load i32, ptr %9, align 4
  %11 = getelementptr inbounds [200 x %"struct.Scheduler::handType"], ptr %0, i64 0, i64 %indvars.iv, i32 7
  store i32 %10, ptr %11, align 8
  %indvars.iv.next = add nuw nsw i64 %indvars.iv, 1
  %12 = load i32, ptr %2, align 4
  %13 = sext i32 %12 to i64
  %14 = icmp slt i64 %indvars.iv.next, %13
  br i1 %14, label %8, label %._crit_edge, !llvm.loop !11

._crit_edge:                                      ; preds = %8, %4
  tail call void @_ZN9Scheduler11RegisterRunE7RunModeRK6boards(ptr noundef nonnull align 8 dereferenceable(43416) %0, i32 noundef %1, ptr noundef nonnull align 4 dereferenceable(21604) %2)
  ret void
}